; Function Attrs: nounwind uwtable
define ptr @l_Array_filterMapM___at_Lean_Elab_Term_Quotation_precheckChoice___spec__4(ptr noundef readonly captures(none) %0, ptr noundef %1, ptr noundef %2) local_unnamed_addr #0 {
  %4 = ptrtoint ptr %1 to i64
  %5 = and i64 %4, 1
  %6 = ptrtoint ptr %2 to i64
  %7 = and i64 %5, %6
  %or.cond.not = icmp eq i64 %7, 0
  br i1 %or.cond.not, label %lean_nat_lt.exit, label %8, !prof !21

8:                                                ; preds = %3
  %9 = icmp ult ptr %1, %2
  br i1 %9, label %13, label %11

lean_nat_lt.exit:                                 ; preds = %3
  %10 = tail call zeroext i1 @lean_nat_big_lt(ptr noundef %1, ptr noundef %2) #4
  br i1 %10, label %13, label %11

11:                                               ; preds = %8, %lean_nat_lt.exit
  %12 = load ptr, ptr @l_Lean_addTrace___at_Lean_Elab_Term_Quotation_precheck___spec__3___closed__2, align 8, !tbaa !9
  br label %36

13:                                               ; preds = %8, %lean_nat_lt.exit
  %14 = getelementptr i8, ptr %0, i64 8
  %.val = load i64, ptr %14, align 8, !tbaa !14
  %15 = shl i64 %.val, 1
  %16 = or disjoint i64 %15, 1
  %17 = inttoptr i64 %16 to ptr
  %18 = and i64 %6, 1
  %.not = icmp eq i64 %18, 0
  br i1 %.not, label %lean_dec.exit, label %19, !prof !19

19:                                               ; preds = %13
  %.not24 = icmp ugt ptr %2, %17
  br i1 %.not24, label %21, label %23

lean_dec.exit:                                    ; preds = %13
  %20 = tail call zeroext i1 @lean_nat_big_le(ptr noundef %2, ptr noundef nonnull %17) #4
  br i1 %20, label %23, label %21

21:                                               ; preds = %19, %lean_dec.exit
  %22 = load ptr, ptr @l_Lean_addTrace___at_Lean_Elab_Term_Quotation_precheck___spec__3___closed__2, align 8, !tbaa !9
  br label %36

23:                                               ; preds = %19, %lean_dec.exit
  %.not.i19 = icmp eq i64 %5, 0
  br i1 %.not.i19, label %26, label %24

24:                                               ; preds = %23
  %25 = lshr i64 %4, 1
  br label %lean_usize_of_nat.exit

26:                                               ; preds = %23
  %27 = tail call i64 @lean_usize_of_big_nat(ptr noundef %1) #4
  br label %lean_usize_of_nat.exit

lean_usize_of_nat.exit:                           ; preds = %24, %26
  %28 = phi i64 [ %25, %24 ], [ %27, %26 ]
  br i1 %.not, label %31, label %29

29:                                               ; preds = %lean_usize_of_nat.exit
  %30 = lshr i64 %6, 1
  br label %lean_usize_of_nat.exit21

31:                                               ; preds = %lean_usize_of_nat.exit
  %32 = tail call i64 @lean_usize_of_big_nat(ptr noundef %2) #4
  br label %lean_usize_of_nat.exit21

lean_usize_of_nat.exit21:                         ; preds = %29, %31
  %33 = phi i64 [ %30, %29 ], [ %32, %31 ]
  %34 = load ptr, ptr @l_Lean_addTrace___at_Lean_Elab_Term_Quotation_precheck___spec__3___closed__2, align 8, !tbaa !9
  %35 = tail call ptr @l_Array_foldlMUnsafe_fold___at_Lean_Elab_Term_Quotation_precheckChoice___spec__5(ptr noundef nonnull %0, i64 noundef %28, i64 noundef %33, ptr noundef %34)
  br label %36

36:                                               ; preds = %21, %lean_usize_of_nat.exit21, %11
  %.0 = phi ptr [ %12, %11 ], [ %22, %21 ], [ %35, %lean_usize_of_nat.exit21 ]
  ret ptr %.0
}